target datalayout = "e-m:e-p270:32:32-p271:32:32-p272:64:64-i64:64-i128:128-f80:128-n8:16:32:64-S128"
target triple = "x86_64-pc-linux-gnu"

%"class.google::protobuf::io::CodedOutputStream" = type { %"class.google::protobuf::io::EpsCopyOutputStream", ptr, i64 }
%"class.google::protobuf::io::EpsCopyOutputStream" = type <{ ptr, ptr, [32 x i8], ptr, i8, i8, i8, [5 x i8] }>
%"class.google::protobuf::internal::ExtensionSet" = type { ptr, i16, i16, %"union.google::protobuf::internal::ExtensionSet::AllocatedData" }
%"union.google::protobuf::internal::ExtensionSet::AllocatedData" = type { ptr }

; Function Attrs: mustprogress nounwind uwtable
define linkonce_odr hidden void @_ZN6google8protobuf2io17CodedOutputStream6SetCurEPh(ptr noundef nonnull align 8 dereferenceable(80) %0, ptr noundef %1) #4 comdat align 2 {
  %3 = alloca ptr, align 8
  %4 = alloca ptr, align 8
  store ptr %0, ptr %3, align 8, !tbaa !17
  store ptr %1, ptr %4, align 8, !tbaa !38
  %5 = load ptr, ptr %3, align 8
  %6 = load ptr, ptr %4, align 8, !tbaa !38
  %7 = getelementptr inbounds nuw %"class.google::protobuf::io::CodedOutputStream", ptr %5, i32 0, i32 1
  store ptr %6, ptr %7, align 8, !tbaa !29
  ret void
}

; Function Attrs: mustprogress uwtable
define linkonce_odr hidden noundef ptr @_ZNK6google8protobuf8internal12ExtensionSet18_InternalSerializeEPKNS0_11MessageLiteEiiPhPNS0_2io19EpsCopyOutputStreamE(ptr noundef nonnull align 8 dereferenceable(24) %0, ptr noundef %1, i32 noundef %2, i32 noundef %3, ptr noundef %4, ptr noundef %5) #5 comdat align 2 {
  %7 = alloca ptr, align 8
  %8 = alloca ptr, align 8
  %9 = alloca ptr, align 8
  %10 = alloca i32, align 4
  %11 = alloca i32, align 4
  %12 = alloca ptr, align 8
  %13 = alloca ptr, align 8
  store ptr %0, ptr %8, align 8, !tbaa !140
  store ptr %1, ptr %9, align 8, !tbaa !15
  store i32 %2, ptr %10, align 4, !tbaa !36
  store i32 %3, ptr %11, align 4, !tbaa !36
  store ptr %4, ptr %12, align 8, !tbaa !38
  store ptr %5, ptr %13, align 8, !tbaa !172
  %14 = load ptr, ptr %8, align 8
  %15 = getelementptr inbounds nuw %"class.google::protobuf::internal::ExtensionSet", ptr %14, i32 0, i32 2
  %16 = load i16, ptr %15, align 2, !tbaa !179
  %17 = zext i16 %16 to i32
  %18 = icmp eq i32 %17, 0
  br i1 %18, label %19, label %21

19:                                               ; preds = %6
  %20 = load ptr, ptr %12, align 8, !tbaa !38
  store ptr %20, ptr %7, align 8
  br label %28

21:                                               ; preds = %6
  %22 = load ptr, ptr %9, align 8, !tbaa !15
  %23 = load i32, ptr %10, align 4, !tbaa !36
  %24 = load i32, ptr %11, align 4, !tbaa !36
  %25 = load ptr, ptr %12, align 8, !tbaa !38
  %26 = load ptr, ptr %13, align 8, !tbaa !172
  %27 = call noundef ptr @_ZNK6google8protobuf8internal12ExtensionSet22_InternalSerializeImplEPKNS0_11MessageLiteEiiPhPNS0_2io19EpsCopyOutputStreamE(ptr noundef nonnull align 8 dereferenceable(24) %14, ptr noundef %22, i32 noundef %23, i32 noundef %24, ptr noundef %25, ptr noundef %26)
  store ptr %27, ptr %7, align 8
  br label %28

28:                                               ; preds = %21, %19
  %29 = load ptr, ptr %7, align 8
  ret ptr %29
}

; Function Attrs: mustprogress nounwind uwtable
define linkonce_odr hidden noundef ptr @_ZN6google8protobuf2io17CodedOutputStream7EpsCopyEv(ptr noundef nonnull align 8 dereferenceable(80) %0) #4 comdat align 2 {
  %2 = alloca ptr, align 8
  store ptr %0, ptr %2, align 8, !tbaa !17
  %3 = load ptr, ptr %2, align 8
  %4 = getelementptr inbounds nuw %"class.google::protobuf::io::CodedOutputStream", ptr %3, i32 0, i32 0
  ret ptr %4
}

; Function Attrs: mustprogress nounwind uwtable
define linkonce_odr hidden noundef ptr @_ZNK6google8protobuf2io17CodedOutputStream3CurEv(ptr noundef nonnull align 8 dereferenceable(80) %0) #4 comdat align 2 {
  %2 = alloca ptr, align 8
  store ptr %0, ptr %2, align 8, !tbaa !17
  %3 = load ptr, ptr %2, align 8
  %4 = getelementptr inbounds nuw %"class.google::protobuf::io::CodedOutputStream", ptr %3, i32 0, i32 1
  %5 = load ptr, ptr %4, align 8, !tbaa !29
  ret ptr %5
}

; Function Attrs: mustprogress uwtable
define linkonce_odr hidden void @_ZNK6google8protobuf8internal12ExtensionSet24SerializeWithCachedSizesEPKNS0_11MessageLiteEiiPNS0_2io17CodedOutputStreamE(ptr noundef nonnull align 8 dereferenceable(24) %0, ptr noundef %1, i32 noundef %2, i32 noundef %3, ptr noundef %4) #5 comdat align 2 {
  %6 = alloca ptr, align 8
  %7 = alloca ptr, align 8
  %8 = alloca i32, align 4
  %9 = alloca i32, align 4
  %10 = alloca ptr, align 8
  store ptr %0, ptr %6, align 8, !tbaa !140
  store ptr %1, ptr %7, align 8, !tbaa !15
  store i32 %2, ptr %8, align 4, !tbaa !36
  store i32 %3, ptr %9, align 4, !tbaa !36
  store ptr %4, ptr %10, align 8, !tbaa !17
  %11 = load ptr, ptr %6, align 8
  %12 = load ptr, ptr %10, align 8, !tbaa !17
  %13 = load ptr, ptr %7, align 8, !tbaa !15
  %14 = load i32, ptr %8, align 4, !tbaa !36
  %15 = load i32, ptr %9, align 4, !tbaa !36
  %16 = load ptr, ptr %10, align 8, !tbaa !17
  %17 = call noundef ptr @_ZNK6google8protobuf2io17CodedOutputStream3CurEv(ptr noundef nonnull align 8 dereferenceable(80) %16)
  %18 = load ptr, ptr %10, align 8, !tbaa !17
  %19 = call noundef ptr @_ZN6google8protobuf2io17CodedOutputStream7EpsCopyEv(ptr noundef nonnull align 8 dereferenceable(80) %18)
  %20 = call noundef ptr @_ZNK6google8protobuf8internal12ExtensionSet18_InternalSerializeEPKNS0_11MessageLiteEiiPhPNS0_2io19EpsCopyOutputStreamE(ptr noundef nonnull align 8 dereferenceable(24) %11, ptr noundef %13, i32 noundef %14, i32 noundef %15, ptr noundef %17, ptr noundef %19)
  call void @_ZN6google8protobuf2io17CodedOutputStream6SetCurEPh(ptr noundef nonnull align 8 dereferenceable(80) %12, ptr noundef %20)
  ret void
}

; Function Attrs: mustprogress uwtable
define hidden void @_ZN6google8protobuf8internal19ExtensionSerializerEPKNS0_11MessageLiteEPKhjjjPNS0_2io17CodedOutputStreamE(ptr noundef %0, ptr noundef %1, i32 noundef %2, i32 noundef %3, i32 noundef %4, ptr noundef %5) #5 {
  %7 = alloca ptr, align 8
  %8 = alloca ptr, align 8
  %9 = alloca i32, align 4
  %10 = alloca i32, align 4
  %11 = alloca i32, align 4
  %12 = alloca ptr, align 8
  store ptr %0, ptr %7, align 8, !tbaa !15
  store ptr %1, ptr %8, align 8, !tbaa !38
  store i32 %2, ptr %9, align 4, !tbaa !36
  store i32 %3, ptr %10, align 4, !tbaa !36
  store i32 %4, ptr %11, align 4, !tbaa !36
  store ptr %5, ptr %12, align 8, !tbaa !17
  %13 = load ptr, ptr %8, align 8, !tbaa !38
  %14 = load i32, ptr %9, align 4, !tbaa !36
  %15 = zext i32 %14 to i64
  %16 = getelementptr inbounds nuw i8, ptr %13, i64 %15
  %17 = load ptr, ptr %7, align 8, !tbaa !15
  %18 = load i32, ptr %10, align 4, !tbaa !36
  %19 = load i32, ptr %11, align 4, !tbaa !36
  %20 = load ptr, ptr %12, align 8, !tbaa !17
  call void @_ZNK6google8protobuf8internal12ExtensionSet24SerializeWithCachedSizesEPKNS0_11MessageLiteEiiPNS0_2io17CodedOutputStreamE(ptr noundef nonnull align 8 dereferenceable(24) %16, ptr noundef %17, i32 noundef %18, i32 noundef %19, ptr noundef %20)
  ret void
}