; Function Attrs: mustprogress uwtable
define hidden void @_ZN6google8protobuf8internal19ExtensionSerializerEPKNS0_11MessageLiteEPKhjjjPNS0_2io17CodedOutputStreamE(ptr noundef %0, ptr noundef %1, i32 noundef %2, i32 noundef %3, i32 noundef %4, ptr noundef %5) local_unnamed_addr #4 {
  %7 = zext i32 %2 to i64
  %8 = getelementptr inbounds nuw i8, ptr %1, i64 %7
  %9 = getelementptr inbounds nuw i8, ptr %5, i64 64
  %10 = load ptr, ptr %9, align 8, !tbaa !17
  %11 = getelementptr inbounds nuw i8, ptr %8, i64 10
  %12 = load i16, ptr %11, align 2, !tbaa !149
  %13 = icmp eq i16 %12, 0
  br i1 %13, label %_ZNK6google8protobuf8internal12ExtensionSet24SerializeWithCachedSizesEPKNS0_11MessageLiteEiiPNS0_2io17CodedOutputStreamE.exit, label %14

14:                                               ; preds = %6
  %15 = tail call noundef ptr @_ZNK6google8protobuf8internal12ExtensionSet22_InternalSerializeImplEPKNS0_11MessageLiteEiiPhPNS0_2io19EpsCopyOutputStreamE(ptr noundef nonnull align 8 dereferenceable(24) %8, ptr noundef %0, i32 noundef %3, i32 noundef %4, ptr noundef %10, ptr noundef nonnull %5)
  br label %_ZNK6google8protobuf8internal12ExtensionSet24SerializeWithCachedSizesEPKNS0_11MessageLiteEiiPNS0_2io17CodedOutputStreamE.exit

_ZNK6google8protobuf8internal12ExtensionSet24SerializeWithCachedSizesEPKNS0_11MessageLiteEiiPNS0_2io17CodedOutputStreamE.exit: ; preds = %6, %14
  %.0.i.i = phi ptr [ %15, %14 ], [ %10, %6 ]
  store ptr %.0.i.i, ptr %9, align 8, !tbaa !17
  ret void
}